; Function Attrs: nofree norecurse nosync nounwind memory(write, argmem: readwrite, inaccessiblemem: none) uwtable
define ptr @stbsp__clamp_callback(ptr noundef readonly captures(address) %0, ptr noundef captures(ret: address, provenance) %1, i32 noundef %2) #7 {
  %4 = getelementptr inbounds nuw i8, ptr %1, i64 12
  %5 = load i32, ptr %4, align 4, !tbaa !51
  %6 = add nsw i32 %5, %2
  store i32 %6, ptr %4, align 4, !tbaa !51
  %7 = getelementptr inbounds nuw i8, ptr %1, i64 8
  %8 = load i32, ptr %7, align 8, !tbaa !53
  %spec.select = tail call i32 @llvm.smin.i32(i32 %2, i32 %8)
  %.not = icmp eq i32 %spec.select, 0
  br i1 %.not, label %22, label %9

9:                                                ; preds = %3
  %10 = load ptr, ptr %1, align 8, !tbaa !54
  %.not34 = icmp eq ptr %0, %10
  %.pre36 = sext i32 %spec.select to i64
  br i1 %.not34, label %.loopexit, label %11

11:                                               ; preds = %9
  %12 = getelementptr inbounds i8, ptr %0, i64 %.pre36
  br label %13

13:                                               ; preds = %13, %11
  %.027 = phi ptr [ %0, %11 ], [ %14, %13 ]
  %.0 = phi ptr [ %10, %11 ], [ %16, %13 ]
  %14 = getelementptr inbounds nuw i8, ptr %.027, i64 1
  %15 = load i8, ptr %.027, align 1, !tbaa !3
  %16 = getelementptr inbounds nuw i8, ptr %.0, i64 1
  store i8 %15, ptr %.0, align 1, !tbaa !3
  %17 = icmp ult ptr %14, %12
  br i1 %17, label %13, label %.loopexit.loopexit, !llvm.loop !55

.loopexit.loopexit:                               ; preds = %13
  %.pre = load ptr, ptr %1, align 8, !tbaa !54
  %.pre35 = load i32, ptr %7, align 8, !tbaa !53
  br label %.loopexit

.loopexit:                                        ; preds = %9, %.loopexit.loopexit
  %18 = phi i32 [ %.pre35, %.loopexit.loopexit ], [ %8, %9 ]
  %19 = phi ptr [ %.pre, %.loopexit.loopexit ], [ %10, %9 ]
  %20 = getelementptr inbounds i8, ptr %19, i64 %.pre36
  store ptr %20, ptr %1, align 8, !tbaa !54
  %21 = sub nsw i32 %18, %spec.select
  store i32 %21, ptr %7, align 8, !tbaa !53
  br label %22

22:                                               ; preds = %.loopexit, %3
  %23 = phi i32 [ %21, %.loopexit ], [ %8, %3 ]
  %24 = icmp slt i32 %23, 1
  br i1 %24, label %25, label %27

25:                                               ; preds = %22
  %26 = getelementptr inbounds nuw i8, ptr %1, i64 16
  br label %33

27:                                               ; preds = %22
  %28 = icmp samesign ugt i32 %23, 511
  br i1 %28, label %29, label %31

29:                                               ; preds = %27
  %30 = load ptr, ptr %1, align 8, !tbaa !54
  br label %33

31:                                               ; preds = %27
  %32 = getelementptr inbounds nuw i8, ptr %1, i64 16
  br label %33

33:                                               ; preds = %29, %31, %25
  %.026 = phi ptr [ %26, %25 ], [ %30, %29 ], [ %32, %31 ]
  ret ptr %.026
}